; Function Attrs: mustprogress uwtable
define noundef ptr @_ZNK5faiss9IndexHNSW21get_distance_computerEv(ptr noundef nonnull readonly align 8 captures(none) dereferenceable(5202) %0) unnamed_addr #1 align 2 {
  %2 = getelementptr inbounds nuw i8, ptr %0, i64 5192
  %3 = load ptr, ptr %2, align 8, !tbaa !4
  %4 = load ptr, ptr %3, align 8, !tbaa !41
  %5 = getelementptr inbounds nuw i8, ptr %4, i64 128
  %6 = load ptr, ptr %5, align 8
  %7 = tail call noundef ptr %6(ptr noundef nonnull align 8 dereferenceable(36) %3)
  ret ptr %7
}